target datalayout = "e-m:e-p270:32:32-p271:32:32-p272:64:64-i64:64-i128:128-f80:128-n8:16:32:64-S128"
target triple = "x86_64-pc-linux-gnu"

%struct.ThreadQueue = type { ptr, i32, i32, ptr, ptr, %union.pthread_mutex_t, %union.pthread_cond_t }
%union.pthread_mutex_t = type { %struct.__pthread_mutex_s }
%struct.__pthread_mutex_s = type { i32, i32, i32, i32, i32, i16, i16, %struct.__pthread_internal_list }
%struct.__pthread_internal_list = type { ptr, ptr }
%union.pthread_cond_t = type { %struct.__pthread_cond_s }
%struct.__pthread_cond_s = type { %union.__atomic_wide_counter, %union.__atomic_wide_counter, [2 x i32], [2 x i32], i32, i32, [2 x i32] }
%union.__atomic_wide_counter = type { i64 }

@.str = private unnamed_addr constant [30 x i8] c"Assertion %s failed at %s:%d\0A\00", align 1
@.str.1 = private unnamed_addr constant [28 x i8] c"stream_idx < tq->nb_streams\00", align 1
@.str.2 = private unnamed_addr constant [23 x i8] c"fftools/thread_queue.c\00", align 1

; Function Attrs: nounwind uwtable
define i32 @tq_send(ptr noundef %0, i32 noundef %1, ptr noundef %2) #0 {
  %4 = alloca ptr, align 8
  %5 = alloca i32, align 4
  %6 = alloca ptr, align 8
  %7 = alloca ptr, align 8
  %8 = alloca i32, align 4
  store ptr %0, ptr %4, align 8, !tbaa !10
  store i32 %1, ptr %5, align 4, !tbaa !12
  store ptr %2, ptr %6, align 8, !tbaa !25
  call void @llvm.lifetime.start.p0(i64 8, ptr %7) #5
  call void @llvm.lifetime.start.p0(i64 4, ptr %8) #5
  br label %9

9:                                                ; preds = %3
  %10 = load i32, ptr %5, align 4, !tbaa !12
  %11 = load ptr, ptr %4, align 8, !tbaa !10
  %12 = getelementptr inbounds nuw %struct.ThreadQueue, ptr %11, i32 0, i32 1
  %13 = load i32, ptr %12, align 8, !tbaa !21
  %14 = icmp ult i32 %10, %13
  br i1 %14, label %16, label %15

15:                                               ; preds = %9
  call void (ptr, i32, ptr, ...) @av_log(ptr noundef null, i32 noundef 0, ptr noundef @.str, ptr noundef @.str.1, ptr noundef @.str.2, i32 noundef 121)
  call void @abort() #6
  unreachable

16:                                               ; preds = %9
  br label %17

17:                                               ; preds = %16
  br label %18

18:                                               ; preds = %17
  %19 = load ptr, ptr %4, align 8, !tbaa !10
  %20 = getelementptr inbounds nuw %struct.ThreadQueue, ptr %19, i32 0, i32 0
  %21 = load ptr, ptr %20, align 8, !tbaa !16
  %22 = load i32, ptr %5, align 4, !tbaa !12
  %23 = zext i32 %22 to i64
  %24 = getelementptr inbounds nuw i32, ptr %21, i64 %23
  store ptr %24, ptr %7, align 8, !tbaa !26
  %25 = load ptr, ptr %4, align 8, !tbaa !10
  %26 = getelementptr inbounds nuw %struct.ThreadQueue, ptr %25, i32 0, i32 5
  %27 = call i32 @pthread_mutex_lock(ptr noundef %26) #5
  %28 = load ptr, ptr %7, align 8, !tbaa !26
  %29 = load i32, ptr %28, align 4, !tbaa !12
  %30 = and i32 %29, 1
  %31 = icmp ne i32 %30, 0
  br i1 %31, label %32, label %33

32:                                               ; preds = %18
  store i32 -22, ptr %8, align 4, !tbaa !12
  br label %85

33:                                               ; preds = %18
  br label %34

34:                                               ; preds = %48, %33
  %35 = load ptr, ptr %7, align 8, !tbaa !26
  %36 = load i32, ptr %35, align 4, !tbaa !12
  %37 = and i32 %36, 2
  %38 = icmp ne i32 %37, 0
  br i1 %38, label %46, label %39

39:                                               ; preds = %34
  %40 = load ptr, ptr %4, align 8, !tbaa !10
  %41 = getelementptr inbounds nuw %struct.ThreadQueue, ptr %40, i32 0, i32 4
  %42 = load ptr, ptr %41, align 8, !tbaa !24
  %43 = call i64 @av_fifo_can_write(ptr noundef %42)
  %44 = icmp ne i64 %43, 0
  %45 = xor i1 %44, true
  br label %46

46:                                               ; preds = %39, %34
  %47 = phi i1 [ false, %34 ], [ %45, %39 ]
  br i1 %47, label %48, label %54

48:                                               ; preds = %46
  %49 = load ptr, ptr %4, align 8, !tbaa !10
  %50 = getelementptr inbounds nuw %struct.ThreadQueue, ptr %49, i32 0, i32 6
  %51 = load ptr, ptr %4, align 8, !tbaa !10
  %52 = getelementptr inbounds nuw %struct.ThreadQueue, ptr %51, i32 0, i32 5
  %53 = call i32 @pthread_cond_wait(ptr noundef %50, ptr noundef %52)
  br label %34, !llvm.loop !27

54:                                               ; preds = %46
  %55 = load ptr, ptr %7, align 8, !tbaa !26
  %56 = load i32, ptr %55, align 4, !tbaa !12
  %57 = and i32 %56, 2
  %58 = icmp ne i32 %57, 0
  br i1 %58, label %59, label %63

59:                                               ; preds = %54
  store i32 -541478725, ptr %8, align 4, !tbaa !12
  %60 = load ptr, ptr %7, align 8, !tbaa !26
  %61 = load i32, ptr %60, align 4, !tbaa !12
  %62 = or i32 %61, 1
  store i32 %62, ptr %60, align 4, !tbaa !12
  br label %84

63:                                               ; preds = %54
  %64 = load ptr, ptr %4, align 8, !tbaa !10
  %65 = getelementptr inbounds nuw %struct.ThreadQueue, ptr %64, i32 0, i32 4
  %66 = load ptr, ptr %65, align 8, !tbaa !24
  %67 = call i32 @av_fifo_write(ptr noundef %66, ptr noundef %5, i64 noundef 1)
  store i32 %67, ptr %8, align 4, !tbaa !12
  %68 = load i32, ptr %8, align 4, !tbaa !12
  %69 = icmp slt i32 %68, 0
  br i1 %69, label %70, label %71

70:                                               ; preds = %63
  br label %85

71:                                               ; preds = %63
  %72 = load ptr, ptr %4, align 8, !tbaa !10
  %73 = getelementptr inbounds nuw %struct.ThreadQueue, ptr %72, i32 0, i32 3
  %74 = load ptr, ptr %73, align 8, !tbaa !23
  %75 = load ptr, ptr %6, align 8, !tbaa !25
  %76 = call i32 @av_container_fifo_write(ptr noundef %74, ptr noundef %75, i32 noundef 0)
  store i32 %76, ptr %8, align 4, !tbaa !12
  %77 = load i32, ptr %8, align 4, !tbaa !12
  %78 = icmp slt i32 %77, 0
  br i1 %78, label %79, label %80

79:                                               ; preds = %71
  br label %85

80:                                               ; preds = %71
  %81 = load ptr, ptr %4, align 8, !tbaa !10
  %82 = getelementptr inbounds nuw %struct.ThreadQueue, ptr %81, i32 0, i32 6
  %83 = call i32 @pthread_cond_broadcast(ptr noundef %82) #5
  br label %84

84:                                               ; preds = %80, %59
  br label %85

85:                                               ; preds = %84, %79, %70, %32
  %86 = load ptr, ptr %4, align 8, !tbaa !10
  %87 = getelementptr inbounds nuw %struct.ThreadQueue, ptr %86, i32 0, i32 5
  %88 = call i32 @pthread_mutex_unlock(ptr noundef %87) #5
  %89 = load i32, ptr %8, align 4, !tbaa !12
  call void @llvm.lifetime.end.p0(i64 4, ptr %8) #5
  call void @llvm.lifetime.end.p0(i64 8, ptr %7) #5
  ret i32 %89
}