; Function Attrs: nounwind uwtable
define i32 @tq_send(ptr noundef %0, i32 noundef %1, ptr noundef %2) local_unnamed_addr #0 {
  %4 = alloca i32, align 4
  store i32 %1, ptr %4, align 4, !tbaa !19
  %5 = getelementptr inbounds nuw i8, ptr %0, i64 8
  %6 = load i32, ptr %5, align 8, !tbaa !15
  %7 = icmp ult i32 %1, %6
  br i1 %7, label %9, label %8

8:                                                ; preds = %3
  tail call void (ptr, i32, ptr, ...) @av_log(ptr noundef null, i32 noundef 0, ptr noundef nonnull @.str, ptr noundef nonnull @.str.1, ptr noundef nonnull @.str.2, i32 noundef 121) #5
  tail call void @abort() #6
  unreachable

9:                                                ; preds = %3
  %10 = load ptr, ptr %0, align 8, !tbaa !9
  %11 = zext i32 %1 to i64
  %12 = getelementptr inbounds nuw i32, ptr %10, i64 %11
  %13 = getelementptr inbounds nuw i8, ptr %0, i64 32
  %14 = tail call i32 @pthread_mutex_lock(ptr noundef nonnull %13) #5
  %15 = load i32, ptr %12, align 4, !tbaa !19
  %16 = and i32 %15, 1
  %.not = icmp eq i32 %16, 0
  br i1 %.not, label %.preheader, label %43

.preheader:                                       ; preds = %9
  %17 = getelementptr inbounds nuw i8, ptr %0, i64 24
  %18 = and i32 %15, 2
  %.not2023 = icmp eq i32 %18, 0
  br i1 %.not2023, label %.lr.ph, label %.critedge

.lr.ph:                                           ; preds = %.preheader
  %19 = getelementptr inbounds nuw i8, ptr %0, i64 72
  br label %20

20:                                               ; preds = %.lr.ph, %23
  %21 = load ptr, ptr %17, align 8, !tbaa !18
  %22 = tail call i64 @av_fifo_can_write(ptr noundef %21) #5
  %.not21 = icmp eq i64 %22, 0
  br i1 %.not21, label %23, label %..critedge.loopexit_crit_edge

..critedge.loopexit_crit_edge:                    ; preds = %20
  %.pre.pre = load i32, ptr %12, align 4, !tbaa !19
  br label %.critedge

23:                                               ; preds = %20
  %24 = tail call i32 @pthread_cond_wait(ptr noundef nonnull %19, ptr noundef nonnull %13) #5
  %25 = load i32, ptr %12, align 4, !tbaa !19
  %26 = and i32 %25, 2
  %.not20 = icmp eq i32 %26, 0
  br i1 %.not20, label %20, label %.critedge, !llvm.loop !20

.critedge:                                        ; preds = %23, %..critedge.loopexit_crit_edge, %.preheader
  %27 = phi i32 [ %15, %.preheader ], [ %.pre.pre, %..critedge.loopexit_crit_edge ], [ %25, %23 ]
  %28 = and i32 %27, 2
  %.not22 = icmp eq i32 %28, 0
  br i1 %.not22, label %31, label %29

29:                                               ; preds = %.critedge
  %30 = or i32 %27, 1
  store i32 %30, ptr %12, align 4, !tbaa !19
  br label %43

31:                                               ; preds = %.critedge
  %32 = load ptr, ptr %17, align 8, !tbaa !18
  %33 = call i32 @av_fifo_write(ptr noundef %32, ptr noundef nonnull %4, i64 noundef 1) #5
  %34 = icmp slt i32 %33, 0
  br i1 %34, label %43, label %35

35:                                               ; preds = %31
  %36 = getelementptr inbounds nuw i8, ptr %0, i64 16
  %37 = load ptr, ptr %36, align 8, !tbaa !17
  %38 = call i32 @av_container_fifo_write(ptr noundef %37, ptr noundef %2, i32 noundef 0) #5
  %39 = icmp slt i32 %38, 0
  br i1 %39, label %43, label %40

40:                                               ; preds = %35
  %41 = getelementptr inbounds nuw i8, ptr %0, i64 72
  %42 = call i32 @pthread_cond_broadcast(ptr noundef nonnull %41) #5
  br label %43

43:                                               ; preds = %9, %29, %40, %35, %31
  %.0 = phi i32 [ -541478725, %29 ], [ %33, %31 ], [ %38, %35 ], [ %38, %40 ], [ -22, %9 ]
  %44 = call i32 @pthread_mutex_unlock(ptr noundef nonnull %13) #5
  ret i32 %.0
}